(dp1
V\u043a\u043e\u0442\u043e\u0440\u0430\u044f
p2
I21
sV\u043a\u043e\u0442\u043e\u0440\u044b\u0445
p3
I33
sV\u043e\u043d
p4
I13
sV\u0438\u043c\u0438
p5
I47
sV\u043a\u043e\u0442\u043e\u0440\u0443\u044e
p6
I26
sV\u0441\u0432\u043e\u0435\u0433\u043e
p7
I61
sV\u0435\u0451
p8
I31
sV\u0418\u0445
p9
I30
sV\u043d\u0438\u043c
p10
I23
sV\u0435\u044e
p11
I72
sV\u044d\u0442\u0443
p12
I73
sV\u0438\u043c
p13
I24
sV\u043a\u043e\u0442\u043e\u0440\u044b\u0439
p14
I29
sV\u0441\u0432\u043e\u0438\u043c
p15
I77
sV\u043a\u043e\u0442\u043e\u0440\u044b\u0435
p16
I4
sV\u041e\u043d\u0430
p17
I49
sV\u0441\u0432\u043e\u0438
p18
I74
sV\u0441\u0432\u043e\u0438\u043c\u0438
p19
I66
sV\u042d\u0442\u043e\u0433\u043e
p20
I59
sV\u043d\u0435\u0433\u043e
p21
I32
sV\u0435\u043c\u0443
p22
I28
sV\u041d\u0438\u043c
p23
I68
sV\u0441\u0432\u043e\u0435\u043c
p24
I56
sV\u043a\u043e\u0442\u043e\u0440\u043e\u0435
p25
I44
sV0
I16
sVrelatives
p26
I3
sV\u0441\u0432\u043e\u0435
p27
I71
sV\u0415\u043c\u0443
p28
I55
sVpronouns
p29
I10
sV\u043a\u043e\u0442\u043e\u0440\u043e\u043c
p30
I64
sV\u0441\u0432\u043e\u0439
p31
I48
sV\u0441\u0432\u043e\u0435\u043c\u0443
p32
I62
sV\u043a\u043e\u0442\u043e\u0440\u043e\u0439
p33
I17
sV\u0441\u0432\u043e\u0438\u0445
p34
I40
sVA
I12
sVC
I9
sV\u0415\u0439
p35
I76
sVD
I8
sVG
I6
sVF
I2
sV\u041e\u043d\u043e
p36
I58
sV\u0441\u0432\u043e\u044f
p37
I53
sVV
I75
sV\u041a\u043e\u0442\u043e\u0440\u044b\u0439
p38
I70
sVM
I27
sVL
I14
sVO
I7
sVN
I1
sVP
I0
sVS
I5
sV\u044d\u0442\u0438
p39
I46
sV\u041e\u043d\u0438
p40
I22
sV\u043a\u043e\u0442\u043e\u0440\u044b\u043c\u0438
p41
I52
sV\u043d\u0435\u043c
p42
I65
sV\u0415\u0433\u043e
p43
I43
sV\u043d\u0438\u043c\u0438
p44
I42
sVreflexives
p45
I39
sV\u041e\u043d
p46
I45
sV\u044d\u0442\u043e
p47
I60
sV\u0435\u0439
p48
I51
sV\u043a\u043e\u0442\u043e\u0440\u043e\u0433\u043e
p49
I41
sV\u043e\u043d\u0430
p50
I19
sV\u043e\u043d\u043e
p51
I50
sV\u0441\u0432\u043e\u044e
p52
I67
sV\u043d\u0438\u0445
p53
I15
sV\u043a\u043e\u0442\u043e\u0440\u044b\u043c
p54
I38
sV\u043e\u043d\u0438
p55
I11
sV\u0438\u0445
p56
I20
sV\u043d\u0435\u0435
p57
I18
sV\u043a\u043e\u0442\u043e\u0440\u043e\u043c\u0443
p58
I57
sV\u042d\u0442\u043e
p59
I37
sV\u044d\u0442\u043e\u0442
p60
I69
sV\u0418\u043c
p61
I25
sV\u043d\u0435\u043c\u0443
p62
I54
sV\u0435\u0433\u043e
p63
I34
sV\u0435\u0435
p64
I63
sV\u043d\u0435\u0439
p65
I35
sVdemonstratives
p66
I36
s.